target datalayout = "e-m:e-p270:32:32-p271:32:32-p272:64:64-i64:64-i128:128-f80:128-n8:16:32:64-S128"
target triple = "x86_64-unknown-linux-gnu"

%struct.DBusDisplay = type { %struct.Object, i32, i8, ptr, ptr, %struct.DisplayGLCtx, ptr, ptr, ptr, ptr, ptr, %struct.QemuClipboardPeer, ptr, ptr, [3 x %struct.DBusClipboardRequest], %struct.Notifier }
%struct.Object = type { ptr, ptr, ptr, i32, ptr }
%struct.DisplayGLCtx = type { ptr }
%struct.QemuClipboardPeer = type { ptr, %struct.Notifier, ptr }
%struct.DBusClipboardRequest = type { ptr, i32, i32 }
%struct.Notifier = type { ptr, %struct.anon.0 }
%struct.anon.0 = type { ptr, ptr }

@.str.4 = private unnamed_addr constant [13 x i8] c"dbus-display\00", align 1
@.str.7 = private unnamed_addr constant [19 x i8] c"/org/qemu/Display1\00", align 1
@.str.8 = private unnamed_addr constant [22 x i8] c"/org/qemu/Display1/VM\00", align 1
@.str.9 = private unnamed_addr constant [18 x i8] c"../qemu/ui/dbus.h\00", align 1
@__func__.DBUS_DISPLAY = private unnamed_addr constant [13 x i8] c"DBUS_DISPLAY\00", align 1

; Function Attrs: nounwind sspstrong uwtable
define internal void @glib_autoptr_clear_GDBusObjectSkeleton(ptr noundef %_ptr) #0 {
entry:
  %_ptr.addr = alloca ptr, align 8
  store ptr %_ptr, ptr %_ptr.addr, align 8
  %0 = load ptr, ptr %_ptr.addr, align 8
  %tobool = icmp ne ptr %0, null
  br i1 %tobool, label %if.then, label %if.end

if.then:                                          ; preds = %entry
  %1 = load ptr, ptr %_ptr.addr, align 8
  call void @g_object_unref(ptr noundef %1)
  br label %if.end

if.end:                                           ; preds = %if.then, %entry
  ret void
}

; Function Attrs: nounwind sspstrong uwtable
define internal void @glib_autoptr_cleanup_GDBusObjectSkeleton(ptr noundef %_ptr) #0 {
entry:
  %_ptr.addr = alloca ptr, align 8
  store ptr %_ptr, ptr %_ptr.addr, align 8
  %0 = load ptr, ptr %_ptr.addr, align 8
  %1 = load ptr, ptr %0, align 8
  call void @glib_autoptr_clear_GDBusObjectSkeleton(ptr noundef %1)
  ret void
}

; Function Attrs: nounwind sspstrong uwtable
define internal ptr @DBUS_DISPLAY(ptr noundef %obj) #0 {
entry:
  %obj.addr = alloca ptr, align 8
  store ptr %obj, ptr %obj.addr, align 8
  %0 = load ptr, ptr %obj.addr, align 8
  %call = call ptr @object_dynamic_cast_assert(ptr noundef %0, ptr noundef @.str.4, ptr noundef @.str.9, i32 noundef 72, ptr noundef @__func__.DBUS_DISPLAY)
  ret ptr %call
}

; Function Attrs: nounwind sspstrong uwtable
define internal void @dbus_display_init(ptr noundef %o) #0 {
entry:
  %o.addr = alloca ptr, align 8
  %dd = alloca ptr, align 8
  %vm = alloca ptr, align 8
  store ptr %o, ptr %o.addr, align 8
  %0 = load ptr, ptr %o.addr, align 8
  %call = call ptr @DBUS_DISPLAY(ptr noundef %0)
  store ptr %call, ptr %dd, align 8
  store ptr null, ptr %vm, align 8
  %call1 = call ptr @qemu_dbus_display1_vm_skeleton_new()
  %1 = load ptr, ptr %dd, align 8
  %iface = getelementptr inbounds %struct.DBusDisplay, ptr %1, i32 0, i32 8
  store ptr %call1, ptr %iface, align 8
  %call2 = call ptr @g_ptr_array_new_with_free_func(ptr noundef @g_object_unref)
  %2 = load ptr, ptr %dd, align 8
  %consoles = getelementptr inbounds %struct.DBusDisplay, ptr %2, i32 0, i32 9
  store ptr %call2, ptr %consoles, align 8
  %call3 = call ptr @g_dbus_object_manager_server_new(ptr noundef @.str.7)
  %3 = load ptr, ptr %dd, align 8
  %server = getelementptr inbounds %struct.DBusDisplay, ptr %3, i32 0, i32 7
  store ptr %call3, ptr %server, align 8
  %call4 = call ptr @g_dbus_object_skeleton_new(ptr noundef @.str.8)
  store ptr %call4, ptr %vm, align 8
  %4 = load ptr, ptr %vm, align 8
  %5 = load ptr, ptr %dd, align 8
  %iface5 = getelementptr inbounds %struct.DBusDisplay, ptr %5, i32 0, i32 8
  %6 = load ptr, ptr %iface5, align 8
  %call6 = call i64 @g_dbus_interface_skeleton_get_type() #5
  %call7 = call ptr @g_type_check_instance_cast(ptr noundef %6, i64 noundef %call6)
  call void @g_dbus_object_skeleton_add_interface(ptr noundef %4, ptr noundef %call7)
  %7 = load ptr, ptr %dd, align 8
  %server8 = getelementptr inbounds %struct.DBusDisplay, ptr %7, i32 0, i32 7
  %8 = load ptr, ptr %server8, align 8
  %9 = load ptr, ptr %vm, align 8
  call void @g_dbus_object_manager_server_export(ptr noundef %8, ptr noundef %9)
  %10 = load ptr, ptr %dd, align 8
  call void @dbus_clipboard_init(ptr noundef %10)
  %11 = load ptr, ptr %dd, align 8
  call void @dbus_chardev_init(ptr noundef %11)
  call void @glib_autoptr_cleanup_GDBusObjectSkeleton(ptr noundef %vm)
  ret void
}