; Function Attrs: nounwind sspstrong uwtable
define internal void @dbus_display_init(ptr noundef %o) #0 {
entry:
  %call.i = tail call ptr @object_dynamic_cast_assert(ptr noundef %o, ptr noundef nonnull @.str.4, ptr noundef nonnull @.str.9, i32 noundef 72, ptr noundef nonnull @__func__.DBUS_DISPLAY) #5
  %call1 = tail call ptr @qemu_dbus_display1_vm_skeleton_new() #5
  %iface = getelementptr inbounds nuw i8, ptr %call.i, i64 88
  store ptr %call1, ptr %iface, align 8
  %call2 = tail call ptr @g_ptr_array_new_with_free_func(ptr noundef nonnull @g_object_unref) #5
  %consoles = getelementptr inbounds nuw i8, ptr %call.i, i64 96
  store ptr %call2, ptr %consoles, align 8
  %call3 = tail call ptr @g_dbus_object_manager_server_new(ptr noundef nonnull @.str.7) #5
  %server = getelementptr inbounds nuw i8, ptr %call.i, i64 80
  store ptr %call3, ptr %server, align 8
  %call4 = tail call ptr @g_dbus_object_skeleton_new(ptr noundef nonnull @.str.8) #5
  %0 = load ptr, ptr %iface, align 8
  %call6 = tail call i64 @g_dbus_interface_skeleton_get_type() #6
  %call7 = tail call ptr @g_type_check_instance_cast(ptr noundef %0, i64 noundef %call6) #5
  tail call void @g_dbus_object_skeleton_add_interface(ptr noundef %call4, ptr noundef %call7) #5
  %1 = load ptr, ptr %server, align 8
  tail call void @g_dbus_object_manager_server_export(ptr noundef %1, ptr noundef %call4) #5
  tail call void @dbus_clipboard_init(ptr noundef %call.i) #5
  tail call void @dbus_chardev_init(ptr noundef %call.i) #5
  %tobool.not.i.i = icmp eq ptr %call4, null
  br i1 %tobool.not.i.i, label %glib_autoptr_cleanup_GDBusObjectSkeleton.exit, label %if.then.i.i

if.then.i.i:                                      ; preds = %entry
  tail call void @g_object_unref(ptr noundef nonnull %call4) #5
  br label %glib_autoptr_cleanup_GDBusObjectSkeleton.exit

glib_autoptr_cleanup_GDBusObjectSkeleton.exit:    ; preds = %entry, %if.then.i.i
  ret void
}